target datalayout = "e-m:e-p270:32:32-p271:32:32-p272:64:64-i64:64-i128:128-f80:128-n8:16:32:64-S128"
target triple = "x86_64-pc-linux-gnu"

%struct._zend_refcounted_h = type { i32, %union.anon }
%union.anon = type { i32 }
%struct._zval_struct = type { %union._zend_value, %union.anon.3, %union.anon.6 }
%union._zend_value = type { i64 }
%union.anon.3 = type { i32 }
%union.anon.6 = type { i32 }
%struct._zend_string = type { %struct._zend_refcounted_h, i64, i64, [1 x i8] }

; Function Attrs: nounwind uwtable
define zeroext i1 @zend_binary_op_produces_error(i32 noundef %0, ptr noundef %1, ptr noundef %2) #0 {
  %4 = alloca i8, align 1
  %5 = alloca ptr, align 8
  %6 = alloca i64, align 8
  %7 = alloca ptr, align 8
  %8 = alloca ptr, align 8
  %9 = alloca i8, align 1
  %10 = alloca ptr, align 8
  %11 = alloca ptr, align 8
  %12 = alloca i8, align 1
  %13 = alloca ptr, align 8
  %14 = alloca i64, align 8
  %15 = alloca ptr, align 8
  %16 = alloca ptr, align 8
  %17 = alloca i8, align 1
  %18 = alloca ptr, align 8
  %19 = alloca ptr, align 8
  %20 = alloca ptr, align 8
  %21 = alloca ptr, align 8
  %22 = alloca ptr, align 8
  %23 = alloca ptr, align 8
  %24 = alloca ptr, align 8
  %25 = alloca ptr, align 8
  %26 = alloca ptr, align 8
  %27 = alloca i64, align 8
  %28 = alloca ptr, align 8
  %29 = alloca ptr, align 8
  %30 = alloca i8, align 1
  %31 = alloca ptr, align 8
  %32 = alloca i64, align 8
  %33 = alloca ptr, align 8
  %34 = alloca ptr, align 8
  %35 = alloca i8, align 1
  %36 = alloca ptr, align 8
  %37 = alloca ptr, align 8
  %38 = alloca ptr, align 8
  %39 = alloca ptr, align 8
  %40 = alloca ptr, align 8
  %41 = alloca ptr, align 8
  %42 = alloca ptr, align 8
  %43 = alloca ptr, align 8
  %44 = alloca ptr, align 8
  %45 = alloca ptr, align 8
  %46 = alloca i1, align 1
  %47 = alloca i32, align 4
  %48 = alloca ptr, align 8
  %49 = alloca ptr, align 8
  store i32 %0, ptr %47, align 4
  store ptr %1, ptr %48, align 8
  store ptr %2, ptr %49, align 8
  %50 = load i32, ptr %47, align 4
  %51 = icmp eq i32 %50, 8
  br i1 %51, label %55, label %52

52:                                               ; preds = %3
  %53 = load i32, ptr %47, align 4
  %54 = icmp eq i32 %53, 53
  br i1 %54, label %55, label %71

55:                                               ; preds = %52, %3
  %56 = load ptr, ptr %48, align 8
  store ptr %56, ptr %36, align 8
  %57 = load ptr, ptr %36, align 8
  %58 = getelementptr inbounds %struct._zval_struct, ptr %57, i32 0, i32 1
  %59 = load i8, ptr %58, align 8
  %60 = zext i8 %59 to i32
  %61 = icmp eq i32 %60, 7
  br i1 %61, label %69, label %62

62:                                               ; preds = %55
  %63 = load ptr, ptr %49, align 8
  store ptr %63, ptr %37, align 8
  %64 = load ptr, ptr %37, align 8
  %65 = getelementptr inbounds %struct._zval_struct, ptr %64, i32 0, i32 1
  %66 = load i8, ptr %65, align 8
  %67 = zext i8 %66 to i32
  %68 = icmp eq i32 %67, 7
  br label %69

69:                                               ; preds = %62, %55
  %70 = phi i1 [ true, %55 ], [ %68, %62 ]
  store i1 %70, ptr %46, align 1
  br label %343

71:                                               ; preds = %52
  %72 = load i32, ptr %47, align 4
  %73 = icmp eq i32 %72, 1
  br i1 %73, label %105, label %74

74:                                               ; preds = %71
  %75 = load i32, ptr %47, align 4
  %76 = icmp eq i32 %75, 2
  br i1 %76, label %105, label %77

77:                                               ; preds = %74
  %78 = load i32, ptr %47, align 4
  %79 = icmp eq i32 %78, 3
  br i1 %79, label %105, label %80

80:                                               ; preds = %77
  %81 = load i32, ptr %47, align 4
  %82 = icmp eq i32 %81, 4
  br i1 %82, label %105, label %83

83:                                               ; preds = %80
  %84 = load i32, ptr %47, align 4
  %85 = icmp eq i32 %84, 12
  br i1 %85, label %105, label %86

86:                                               ; preds = %83
  %87 = load i32, ptr %47, align 4
  %88 = icmp eq i32 %87, 5
  br i1 %88, label %105, label %89

89:                                               ; preds = %86
  %90 = load i32, ptr %47, align 4
  %91 = icmp eq i32 %90, 6
  br i1 %91, label %105, label %92

92:                                               ; preds = %89
  %93 = load i32, ptr %47, align 4
  %94 = icmp eq i32 %93, 7
  br i1 %94, label %105, label %95

95:                                               ; preds = %92
  %96 = load i32, ptr %47, align 4
  %97 = icmp eq i32 %96, 9
  br i1 %97, label %105, label %98

98:                                               ; preds = %95
  %99 = load i32, ptr %47, align 4
  %100 = icmp eq i32 %99, 10
  br i1 %100, label %105, label %101

101:                                              ; preds = %98
  %102 = load i32, ptr %47, align 4
  %103 = icmp eq i32 %102, 11
  br i1 %103, label %105, label %104

104:                                              ; preds = %101
  store i1 false, ptr %46, align 1
  br label %343

105:                                              ; preds = %101, %98, %95, %92, %89, %86, %83, %80, %77, %74, %71
  %106 = load ptr, ptr %48, align 8
  store ptr %106, ptr %38, align 8
  %107 = load ptr, ptr %38, align 8
  %108 = getelementptr inbounds %struct._zval_struct, ptr %107, i32 0, i32 1
  %109 = load i8, ptr %108, align 8
  %110 = zext i8 %109 to i32
  %111 = icmp eq i32 %110, 7
  br i1 %111, label %119, label %112

112:                                              ; preds = %105
  %113 = load ptr, ptr %49, align 8
  store ptr %113, ptr %39, align 8
  %114 = load ptr, ptr %39, align 8
  %115 = getelementptr inbounds %struct._zval_struct, ptr %114, i32 0, i32 1
  %116 = load i8, ptr %115, align 8
  %117 = zext i8 %116 to i32
  %118 = icmp eq i32 %117, 7
  br i1 %118, label %119, label %138

119:                                              ; preds = %112, %105
  %120 = load i32, ptr %47, align 4
  %121 = icmp eq i32 %120, 1
  br i1 %121, label %122, label %137

122:                                              ; preds = %119
  %123 = load ptr, ptr %48, align 8
  store ptr %123, ptr %40, align 8
  %124 = load ptr, ptr %40, align 8
  %125 = getelementptr inbounds %struct._zval_struct, ptr %124, i32 0, i32 1
  %126 = load i8, ptr %125, align 8
  %127 = zext i8 %126 to i32
  %128 = icmp eq i32 %127, 7
  br i1 %128, label %129, label %137

129:                                              ; preds = %122
  %130 = load ptr, ptr %49, align 8
  store ptr %130, ptr %41, align 8
  %131 = load ptr, ptr %41, align 8
  %132 = getelementptr inbounds %struct._zval_struct, ptr %131, i32 0, i32 1
  %133 = load i8, ptr %132, align 8
  %134 = zext i8 %133 to i32
  %135 = icmp eq i32 %134, 7
  br i1 %135, label %136, label %137

136:                                              ; preds = %129
  store i1 false, ptr %46, align 1
  br label %343

137:                                              ; preds = %129, %122, %119
  store i1 true, ptr %46, align 1
  br label %343

138:                                              ; preds = %112
  %139 = load i32, ptr %47, align 4
  %140 = icmp eq i32 %139, 9
  br i1 %140, label %147, label %141

141:                                              ; preds = %138
  %142 = load i32, ptr %47, align 4
  %143 = icmp eq i32 %142, 10
  br i1 %143, label %147, label %144

144:                                              ; preds = %141
  %145 = load i32, ptr %47, align 4
  %146 = icmp eq i32 %145, 11
  br i1 %146, label %147, label %162

147:                                              ; preds = %144, %141, %138
  %148 = load ptr, ptr %48, align 8
  store ptr %148, ptr %42, align 8
  %149 = load ptr, ptr %42, align 8
  %150 = getelementptr inbounds %struct._zval_struct, ptr %149, i32 0, i32 1
  %151 = load i8, ptr %150, align 8
  %152 = zext i8 %151 to i32
  %153 = icmp eq i32 %152, 6
  br i1 %153, label %154, label %162

154:                                              ; preds = %147
  %155 = load ptr, ptr %49, align 8
  store ptr %155, ptr %43, align 8
  %156 = load ptr, ptr %43, align 8
  %157 = getelementptr inbounds %struct._zval_struct, ptr %156, i32 0, i32 1
  %158 = load i8, ptr %157, align 8
  %159 = zext i8 %158 to i32
  %160 = icmp eq i32 %159, 6
  br i1 %160, label %161, label %162

161:                                              ; preds = %154
  store i1 false, ptr %46, align 1
  br label %343

162:                                              ; preds = %154, %147, %144
  %163 = load ptr, ptr %48, align 8
  store ptr %163, ptr %44, align 8
  %164 = load ptr, ptr %44, align 8
  %165 = getelementptr inbounds %struct._zval_struct, ptr %164, i32 0, i32 1
  %166 = load i8, ptr %165, align 8
  %167 = zext i8 %166 to i32
  %168 = icmp eq i32 %167, 6
  br i1 %168, label %169, label %206

169:                                              ; preds = %162
  %170 = load ptr, ptr %48, align 8
  %171 = getelementptr inbounds %struct._zval_struct, ptr %170, i32 0, i32 0
  %172 = load ptr, ptr %171, align 8
  %173 = getelementptr inbounds %struct._zend_string, ptr %172, i32 0, i32 3
  %174 = getelementptr inbounds [1 x i8], ptr %173, i64 0, i64 0
  %175 = load ptr, ptr %48, align 8
  %176 = getelementptr inbounds %struct._zval_struct, ptr %175, i32 0, i32 0
  %177 = load ptr, ptr %176, align 8
  %178 = getelementptr inbounds %struct._zend_string, ptr %177, i32 0, i32 2
  %179 = load i64, ptr %178, align 8
  store ptr %174, ptr %26, align 8
  store i64 %179, ptr %27, align 8
  store ptr null, ptr %28, align 8
  store ptr null, ptr %29, align 8
  store i8 0, ptr %30, align 1
  %180 = load ptr, ptr %26, align 8
  %181 = load i64, ptr %27, align 8
  %182 = load ptr, ptr %28, align 8
  %183 = load ptr, ptr %29, align 8
  %184 = load i8, ptr %30, align 1
  %185 = trunc i8 %184 to i1
  store ptr %180, ptr %13, align 8
  store i64 %181, ptr %14, align 8
  store ptr %182, ptr %15, align 8
  store ptr %183, ptr %16, align 8
  %186 = zext i1 %185 to i8
  store i8 %186, ptr %17, align 1
  store ptr null, ptr %18, align 8
  store ptr null, ptr %19, align 8
  %187 = load ptr, ptr %13, align 8
  %188 = load i8, ptr %187, align 1
  %189 = sext i8 %188 to i32
  %190 = icmp sgt i32 %189, 57
  br i1 %190, label %191, label %192

191:                                              ; preds = %169
  store i8 0, ptr %12, align 1
  br label %202

192:                                              ; preds = %169
  %193 = load ptr, ptr %13, align 8
  %194 = load i64, ptr %14, align 8
  %195 = load ptr, ptr %15, align 8
  %196 = load ptr, ptr %16, align 8
  %197 = load i8, ptr %17, align 1
  %198 = trunc i8 %197 to i1
  %199 = load ptr, ptr %18, align 8
  %200 = load ptr, ptr %19, align 8
  %201 = call zeroext i8 @_is_numeric_string_ex(ptr noundef %193, i64 noundef %194, ptr noundef %195, ptr noundef %196, i1 noundef zeroext %198, ptr noundef %199, ptr noundef %200) #15
  store i8 %201, ptr %12, align 1
  br label %202

202:                                              ; preds = %192, %191
  %203 = load i8, ptr %12, align 1
  %204 = icmp ne i8 %203, 0
  br i1 %204, label %206, label %205

205:                                              ; preds = %202
  store i1 true, ptr %46, align 1
  br label %343

206:                                              ; preds = %202, %162
  %207 = load ptr, ptr %49, align 8
  store ptr %207, ptr %45, align 8
  %208 = load ptr, ptr %45, align 8
  %209 = getelementptr inbounds %struct._zval_struct, ptr %208, i32 0, i32 1
  %210 = load i8, ptr %209, align 8
  %211 = zext i8 %210 to i32
  %212 = icmp eq i32 %211, 6
  br i1 %212, label %213, label %250

213:                                              ; preds = %206
  %214 = load ptr, ptr %49, align 8
  %215 = getelementptr inbounds %struct._zval_struct, ptr %214, i32 0, i32 0
  %216 = load ptr, ptr %215, align 8
  %217 = getelementptr inbounds %struct._zend_string, ptr %216, i32 0, i32 3
  %218 = getelementptr inbounds [1 x i8], ptr %217, i64 0, i64 0
  %219 = load ptr, ptr %49, align 8
  %220 = getelementptr inbounds %struct._zval_struct, ptr %219, i32 0, i32 0
  %221 = load ptr, ptr %220, align 8
  %222 = getelementptr inbounds %struct._zend_string, ptr %221, i32 0, i32 2
  %223 = load i64, ptr %222, align 8
  store ptr %218, ptr %31, align 8
  store i64 %223, ptr %32, align 8
  store ptr null, ptr %33, align 8
  store ptr null, ptr %34, align 8
  store i8 0, ptr %35, align 1
  %224 = load ptr, ptr %31, align 8
  %225 = load i64, ptr %32, align 8
  %226 = load ptr, ptr %33, align 8
  %227 = load ptr, ptr %34, align 8
  %228 = load i8, ptr %35, align 1
  %229 = trunc i8 %228 to i1
  store ptr %224, ptr %5, align 8
  store i64 %225, ptr %6, align 8
  store ptr %226, ptr %7, align 8
  store ptr %227, ptr %8, align 8
  %230 = zext i1 %229 to i8
  store i8 %230, ptr %9, align 1
  store ptr null, ptr %10, align 8
  store ptr null, ptr %11, align 8
  %231 = load ptr, ptr %5, align 8
  %232 = load i8, ptr %231, align 1
  %233 = sext i8 %232 to i32
  %234 = icmp sgt i32 %233, 57
  br i1 %234, label %235, label %236

235:                                              ; preds = %213
  store i8 0, ptr %4, align 1
  br label %246

236:                                              ; preds = %213
  %237 = load ptr, ptr %5, align 8
  %238 = load i64, ptr %6, align 8
  %239 = load ptr, ptr %7, align 8
  %240 = load ptr, ptr %8, align 8
  %241 = load i8, ptr %9, align 1
  %242 = trunc i8 %241 to i1
  %243 = load ptr, ptr %10, align 8
  %244 = load ptr, ptr %11, align 8
  %245 = call zeroext i8 @_is_numeric_string_ex(ptr noundef %237, i64 noundef %238, ptr noundef %239, ptr noundef %240, i1 noundef zeroext %242, ptr noundef %243, ptr noundef %244) #15
  store i8 %245, ptr %4, align 1
  br label %246

246:                                              ; preds = %236, %235
  %247 = load i8, ptr %4, align 1
  %248 = icmp ne i8 %247, 0
  br i1 %248, label %250, label %249

249:                                              ; preds = %246
  store i1 true, ptr %46, align 1
  br label %343

250:                                              ; preds = %246, %206
  %251 = load i32, ptr %47, align 4
  %252 = icmp eq i32 %251, 5
  br i1 %252, label %253, label %270

253:                                              ; preds = %250
  %254 = load ptr, ptr %49, align 8
  store ptr %254, ptr %23, align 8
  %255 = load ptr, ptr %23, align 8
  store ptr %255, ptr %22, align 8
  %256 = load ptr, ptr %22, align 8
  %257 = getelementptr inbounds %struct._zval_struct, ptr %256, i32 0, i32 1
  %258 = load i8, ptr %257, align 8
  %259 = zext i8 %258 to i32
  %260 = icmp eq i32 %259, 4
  br i1 %260, label %261, label %264

261:                                              ; preds = %253
  %262 = load ptr, ptr %23, align 8
  %263 = load i64, ptr %262, align 8
  br label %267

264:                                              ; preds = %253
  %265 = load ptr, ptr %23, align 8
  %266 = call i64 @zval_get_long_func(ptr noundef %265, i1 noundef zeroext false) #15
  br label %267

267:                                              ; preds = %264, %261
  %268 = phi i64 [ %263, %261 ], [ %266, %264 ]
  %269 = icmp eq i64 %268, 0
  br i1 %269, label %290, label %270

270:                                              ; preds = %267, %250
  %271 = load i32, ptr %47, align 4
  %272 = icmp eq i32 %271, 4
  br i1 %272, label %273, label %291

273:                                              ; preds = %270
  %274 = load ptr, ptr %49, align 8
  store ptr %274, ptr %21, align 8
  %275 = load ptr, ptr %21, align 8
  store ptr %275, ptr %20, align 8
  %276 = load ptr, ptr %20, align 8
  %277 = getelementptr inbounds %struct._zval_struct, ptr %276, i32 0, i32 1
  %278 = load i8, ptr %277, align 8
  %279 = zext i8 %278 to i32
  %280 = icmp eq i32 %279, 5
  br i1 %280, label %281, label %284

281:                                              ; preds = %273
  %282 = load ptr, ptr %21, align 8
  %283 = load double, ptr %282, align 8
  br label %287

284:                                              ; preds = %273
  %285 = load ptr, ptr %21, align 8
  %286 = call double @zval_get_double_func(ptr noundef %285) #15
  br label %287

287:                                              ; preds = %284, %281
  %288 = phi double [ %283, %281 ], [ %286, %284 ]
  %289 = fcmp oeq double %288, 0.000000e+00
  br i1 %289, label %290, label %291

290:                                              ; preds = %287, %267
  store i1 true, ptr %46, align 1
  br label %343

291:                                              ; preds = %287, %270
  %292 = load i32, ptr %47, align 4
  %293 = icmp eq i32 %292, 6
  br i1 %293, label %297, label %294

294:                                              ; preds = %291
  %295 = load i32, ptr %47, align 4
  %296 = icmp eq i32 %295, 7
  br i1 %296, label %297, label %315

297:                                              ; preds = %294, %291
  %298 = load ptr, ptr %49, align 8
  store ptr %298, ptr %25, align 8
  %299 = load ptr, ptr %25, align 8
  store ptr %299, ptr %24, align 8
  %300 = load ptr, ptr %24, align 8
  %301 = getelementptr inbounds %struct._zval_struct, ptr %300, i32 0, i32 1
  %302 = load i8, ptr %301, align 8
  %303 = zext i8 %302 to i32
  %304 = icmp eq i32 %303, 4
  br i1 %304, label %305, label %308

305:                                              ; preds = %297
  %306 = load ptr, ptr %25, align 8
  %307 = load i64, ptr %306, align 8
  br label %311

308:                                              ; preds = %297
  %309 = load ptr, ptr %25, align 8
  %310 = call i64 @zval_get_long_func(ptr noundef %309, i1 noundef zeroext false) #15
  br label %311

311:                                              ; preds = %308, %305
  %312 = phi i64 [ %307, %305 ], [ %310, %308 ]
  %313 = icmp slt i64 %312, 0
  br i1 %313, label %314, label %315

314:                                              ; preds = %311
  store i1 true, ptr %46, align 1
  br label %343

315:                                              ; preds = %311, %294
  %316 = load i32, ptr %47, align 4
  %317 = icmp eq i32 %316, 6
  br i1 %317, label %333, label %318

318:                                              ; preds = %315
  %319 = load i32, ptr %47, align 4
  %320 = icmp eq i32 %319, 7
  br i1 %320, label %333, label %321

321:                                              ; preds = %318
  %322 = load i32, ptr %47, align 4
  %323 = icmp eq i32 %322, 9
  br i1 %323, label %333, label %324

324:                                              ; preds = %321
  %325 = load i32, ptr %47, align 4
  %326 = icmp eq i32 %325, 10
  br i1 %326, label %333, label %327

327:                                              ; preds = %324
  %328 = load i32, ptr %47, align 4
  %329 = icmp eq i32 %328, 11
  br i1 %329, label %333, label %330

330:                                              ; preds = %327
  %331 = load i32, ptr %47, align 4
  %332 = icmp eq i32 %331, 5
  br i1 %332, label %333, label %342

333:                                              ; preds = %330, %327, %324, %321, %318, %315
  %334 = load ptr, ptr %48, align 8
  %335 = call zeroext i1 @zend_is_op_long_compatible(ptr noundef %334)
  br i1 %335, label %336, label %340

336:                                              ; preds = %333
  %337 = load ptr, ptr %49, align 8
  %338 = call zeroext i1 @zend_is_op_long_compatible(ptr noundef %337)
  %339 = xor i1 %338, true
  br label %340

340:                                              ; preds = %336, %333
  %341 = phi i1 [ true, %333 ], [ %339, %336 ]
  store i1 %341, ptr %46, align 1
  br label %343

342:                                              ; preds = %330
  store i1 false, ptr %46, align 1
  br label %343

343:                                              ; preds = %342, %340, %314, %290, %249, %205, %161, %137, %136, %104, %69
  %344 = load i1, ptr %46, align 1
  ret i1 %344
}