; Function Attrs: nounwind uwtable
define zeroext i1 @zend_binary_op_produces_error(i32 noundef %0, ptr nocapture noundef readonly %1, ptr noundef %2) local_unnamed_addr #0 {
  switch i32 %0, label %12 [
    i32 53, label %4
    i32 8, label %4
  ]

4:                                                ; preds = %3, %3
  %5 = getelementptr inbounds i8, ptr %1, i64 8
  %6 = load i8, ptr %5, align 8
  %7 = icmp eq i8 %6, 7
  br i1 %7, label %.critedge, label %8

8:                                                ; preds = %4
  %9 = getelementptr inbounds i8, ptr %2, i64 8
  %10 = load i8, ptr %9, align 8
  %11 = icmp eq i8 %10, 7
  br label %.critedge

12:                                               ; preds = %3
  %13 = icmp eq i32 %0, 1
  switch i32 %0, label %.critedge [
    i32 12, label %14
    i32 11, label %14
    i32 10, label %14
    i32 9, label %14
    i32 7, label %14
    i32 6, label %14
    i32 5, label %14
    i32 4, label %14
    i32 3, label %14
    i32 2, label %14
    i32 1, label %14
  ]

14:                                               ; preds = %12, %12, %12, %12, %12, %12, %12, %12, %12, %12, %12
  %15 = getelementptr inbounds i8, ptr %1, i64 8
  %16 = load i8, ptr %15, align 8
  %17 = icmp eq i8 %16, 7
  br i1 %17, label %22, label %18

18:                                               ; preds = %14
  %19 = getelementptr inbounds i8, ptr %2, i64 8
  %20 = load i8, ptr %19, align 8
  %21 = icmp eq i8 %20, 7
  br i1 %21, label %.thread141, label %27

22:                                               ; preds = %14
  br i1 %13, label %23, label %.thread141

23:                                               ; preds = %22
  %24 = getelementptr inbounds i8, ptr %2, i64 8
  %25 = load i8, ptr %24, align 8
  %26 = icmp eq i8 %25, 7
  br i1 %26, label %.critedge, label %.thread141

.thread141:                                       ; preds = %18, %23, %22
  br label %.critedge

27:                                               ; preds = %18
  %28 = add nsw i32 %0, -9
  %or.cond25 = icmp ult i32 %28, 3
  %29 = icmp eq i8 %16, 6
  %30 = icmp eq i8 %20, 6
  %31 = and i1 %or.cond25, %30
  %or.cond138 = and i1 %29, %31
  br i1 %or.cond138, label %.critedge, label %32

32:                                               ; preds = %27
  br i1 %29, label %33, label %43

33:                                               ; preds = %32
  %34 = load ptr, ptr %1, align 8
  %35 = getelementptr inbounds i8, ptr %34, i64 24
  %36 = load i8, ptr %35, align 1
  %37 = icmp sgt i8 %36, 57
  br i1 %37, label %.critedge, label %38

38:                                               ; preds = %33
  %39 = getelementptr inbounds i8, ptr %34, i64 16
  %40 = load i64, ptr %39, align 8
  %41 = tail call zeroext i8 @_is_numeric_string_ex(ptr noundef nonnull %35, i64 noundef %40, ptr noundef null, ptr noundef null, i1 noundef zeroext false, ptr noundef null, ptr noundef null) #30
  %42 = icmp eq i8 %41, 0
  br i1 %42, label %.critedge, label %._crit_edge

._crit_edge:                                      ; preds = %38
  %.pre = load i8, ptr %19, align 8
  br label %43

43:                                               ; preds = %._crit_edge, %32
  %44 = phi i8 [ %.pre, %._crit_edge ], [ %20, %32 ]
  %45 = icmp eq i8 %44, 6
  br i1 %45, label %46, label %56

46:                                               ; preds = %43
  %47 = load ptr, ptr %2, align 8
  %48 = getelementptr inbounds i8, ptr %47, i64 24
  %49 = load i8, ptr %48, align 1
  %50 = icmp sgt i8 %49, 57
  br i1 %50, label %.critedge, label %51

51:                                               ; preds = %46
  %52 = getelementptr inbounds i8, ptr %47, i64 16
  %53 = load i64, ptr %52, align 8
  %54 = tail call zeroext i8 @_is_numeric_string_ex(ptr noundef nonnull %48, i64 noundef %53, ptr noundef null, ptr noundef null, i1 noundef zeroext false, ptr noundef null, ptr noundef null) #30
  %55 = icmp eq i8 %54, 0
  br i1 %55, label %.critedge, label %56

56:                                               ; preds = %51, %43
  switch i32 %0, label %77 [
    i32 5, label %57
    i32 4, label %67
  ]

57:                                               ; preds = %56
  %58 = load i8, ptr %19, align 8
  %59 = icmp eq i8 %58, 4
  br i1 %59, label %60, label %62

60:                                               ; preds = %57
  %61 = load i64, ptr %2, align 8
  br label %64

62:                                               ; preds = %57
  %63 = tail call i64 @zval_get_long_func(ptr noundef nonnull %2, i1 noundef zeroext false) #30
  br label %64

64:                                               ; preds = %62, %60
  %65 = phi i64 [ %61, %60 ], [ %63, %62 ]
  %66 = icmp eq i64 %65, 0
  br i1 %66, label %.critedge, label %.thread146

67:                                               ; preds = %56
  %68 = load i8, ptr %19, align 8
  %69 = icmp eq i8 %68, 5
  br i1 %69, label %70, label %72

70:                                               ; preds = %67
  %71 = load double, ptr %2, align 8
  br label %74

72:                                               ; preds = %67
  %73 = tail call double @zval_get_double_func(ptr noundef nonnull %2) #30
  br label %74

74:                                               ; preds = %72, %70
  %75 = phi double [ %71, %70 ], [ %73, %72 ]
  %76 = fcmp oeq double %75, 0.000000e+00
  br i1 %76, label %.critedge, label %switch.early.test.thread

switch.early.test.thread:                         ; preds = %74
  br label %.critedge

77:                                               ; preds = %56
  %78 = and i32 %0, 14
  %or.cond27 = icmp eq i32 %78, 6
  br i1 %or.cond27, label %79, label %switch.early.test

79:                                               ; preds = %77
  %80 = load i8, ptr %19, align 8
  %81 = icmp eq i8 %80, 4
  br i1 %81, label %82, label %84

82:                                               ; preds = %79
  %83 = load i64, ptr %2, align 8
  br label %86

84:                                               ; preds = %79
  %85 = tail call i64 @zval_get_long_func(ptr noundef nonnull %2, i1 noundef zeroext false) #30
  br label %86

86:                                               ; preds = %84, %82
  %87 = phi i64 [ %83, %82 ], [ %85, %84 ]
  %88 = icmp slt i64 %87, 0
  br i1 %88, label %.critedge, label %.thread146

switch.early.test:                                ; preds = %77
  switch i32 %0, label %.critedge [
    i32 11, label %.thread146
    i32 10, label %.thread146
    i32 9, label %.thread146
    i32 5, label %.thread146
  ]

.thread146:                                       ; preds = %64, %switch.early.test, %switch.early.test, %switch.early.test, %switch.early.test, %86
  %89 = tail call zeroext i1 @zend_is_op_long_compatible(ptr noundef nonnull %1)
  br i1 %89, label %90, label %.critedge

90:                                               ; preds = %.thread146
  %91 = tail call zeroext i1 @zend_is_op_long_compatible(ptr noundef nonnull %2)
  %92 = xor i1 %91, true
  br label %.critedge

.critedge:                                        ; preds = %switch.early.test.thread, %switch.early.test, %46, %33, %.thread146, %90, %86, %64, %74, %51, %38, %27, %23, %12, %4, %8, %.thread141
  %.0134 = phi i1 [ true, %.thread141 ], [ true, %4 ], [ %11, %8 ], [ false, %12 ], [ false, %23 ], [ false, %27 ], [ true, %38 ], [ true, %51 ], [ true, %74 ], [ true, %64 ], [ true, %86 ], [ true, %.thread146 ], [ %92, %90 ], [ false, %switch.early.test ], [ true, %33 ], [ true, %46 ], [ false, %switch.early.test.thread ]
  ret i1 %.0134
}